ccopy_reg
_reconstructor
p0
(cseisflows.optimize.LBFGS
LBFGS
p1
c__builtin__
object
p2
Ntp3
Rp4
(dp5
S'restarted'
p6
I0
sS'writer'
p7
g0
(cseisflows.tools.seismic
Writer
p8
g2
Ntp9
Rp10
(dp11
S'path'
p12
S'/home/jakemp/code/examples/marmousi-0-serial/output.stats'
p13
sbsS'line_search'
p14
g0
(cseisflows.plugins.line_search.backtrack
Backtrack
p15
g2
Ntp16
Rp17
(dp18
S'func_vals'
p19
(lp20
F0.008293375
aF0.006245173
aF0.009156931
aF0.006130804
aF0.006130804
aF0.00639727
aF0.005597819
aF0.005597819
aF0.008161794
aF0.005586879
aF0.005586876
aF0.006043229
aF0.005414495
aF0.005414495
aF0.006195781
aF0.004894864
aF0.004894864
aF0.004622869
aF0.004622869
aF0.004229534
aF0.004229534
aF0.003788918
aF0.003788918
aF0.003493603
aF0.003493603
aF0.003447555
aF0.003447555
aF0.003383175
aF0.003383175
aF0.003505342
aF0.003276356
aF0.003276356
aF0.003313544
aF0.003173517
aF0.003173517
aF0.003042205
aF0.003042205
aF0.002798878
aF0.002798878
aF0.002497973
aF0.002497973
aF0.002393893
aF0.002393893
aF0.00234103
aF0.00234103
aF0.002272877
aF0.002272877
aF0.002336013
aF0.002198447
aF0.002198447
aF0.002220654
aF0.002121227
aF0.002121227
aF0.002033521
aF0.002033521
aF0.001821383
aF0.001821383
aF0.001524055
aF0.001524055
aF0.003167795
aF0.001702791
aF0.001447341
aF0.001447341
aF0.001356915
aF0.001356915
aF0.001268494
aF0.001268494
aF0.001221659
aF0.001221659
aF0.001178413
aF0.001178413
aF0.001112152
aF0.001112152
aF0.001156448
aF0.001080081
aF0.001080081
aF0.001030248
aF0.001030248
aF0.0009922611
aF0.0009922611
aF0.0009641882
aF0.0009641882
aF0.0009116062
aF0.0009116062
aF0.0008803183
aF0.0008803183
aF0.0008494874
aF0.0008494874
aF0.0008005392
aF0.0008005392
aF0.0008716537
aF0.0007422059
aF0.0007422059
aF0.0006930137
aF0.0006930137
aF0.0006896167
aF0.0006896167
aF0.0006631806
aF0.0006631806
aF0.0006414951
aF0.0006414951
aF0.0006260558
aF0.0006260558
aF0.0006641301
aF0.0006153984
aF0.0006153984
aF0.0005890903
asS'step_count'
p21
I1
sS'gtg'
p22
(lp23
cnumpy.core.multiarray
scalar
p24
(cnumpy
dtype
p25
(S'f8'
p26
I0
I1
tp27
Rp28
(I3
S'<'
p29
NNNI-1
I-1
I0
tp30
bS'\xf8\x1d[\x9aTP\x10?'
p31
tp32
Rp33
ag24
(g28
S'\xc8%p\xb0a\x9a\x00?'
p34
tp35
Rp36
ag24
(g28
S'Z\x0eV\x85\x9dP\x05?'
p37
tp38
Rp39
ag24
(g28
S'\x90\xf8\xf5\xe7\xd3+\x0c?'
p40
tp41
Rp42
ag24
(g28
S'\xd8\x07Y\x86\x1bn\x06?'
p43
tp44
Rp45
ag24
(g28
S'9\x12!\xc3\x1dE\xf4>'
p46
tp47
Rp48
ag24
(g28
S'\x86}\x0e\xd4\xbc\x85\x08?'
p49
tp50
Rp51
ag24
(g28
S'\x03\x06h\xad\xf3E\x03?'
p52
tp53
Rp54
ag24
(g28
S'\xdb:\x8f`\xac\xf4\xe5>'
p55
tp56
Rp57
ag24
(g28
S'\x1e{C\xd3\xec\xec\xdb>'
p58
tp59
Rp60
ag24
(g28
S'\x0cg\x07\r\xcb\xba\xed>'
p61
tp62
Rp63
ag24
(g28
S'j\xf9\xdf\xa6as\xf0>'
p64
tp65
Rp66
ag24
(g28
S'y\xc7\xf7\xe0\xcb\xa5\xe7>'
p67
tp68
Rp69
ag24
(g28
S'\xeb\x17)\x8f\x0f\x87\xe2>'
p70
tp71
Rp72
ag24
(g28
S'\xa0\x13\x9b\x92M|\xf3>'
p73
tp74
Rp75
ag24
(g28
S'E\x95\xb5e\x1d$\xee>'
p76
tp77
Rp78
ag24
(g28
S"\xd9'\x91Z\x14\x8a\xe1>"
p79
tp80
Rp81
ag24
(g28
S'\xf2O@\x110\x7f\xdd>'
p82
tp83
Rp84
ag24
(g28
S'\x8c\xae\xe7\xfb\x1f\xdd\xde>'
p85
tp86
Rp87
ag24
(g28
S'\xdc\x17Y\xf6#\xd5\xe0>'
p88
tp89
Rp90
ag24
(g28
S'\xb3\x9c>\xb9\x17\x04\xd7>'
p91
tp92
Rp93
ag24
(g28
S'PB\xe6#\xa4@\xcd>'
p94
tp95
Rp96
ag24
(g28
S'$\x86\xf4`\x14v\xdf>'
p97
tp98
Rp99
ag24
(g28
S'\r\xd4z~0\xe4\xd7>'
p100
tp101
Rp102
ag24
(g28
S'\x9c\x9b\xdd\x93\x97\n\xce>'
p103
tp104
Rp105
ag24
(g28
S'\xc0\x83\xc7|\xd2r\xdc>'
p106
tp107
Rp108
ag24
(g28
S'\xa1\x82\xe7\x85\xfd\\\xcb>'
p109
tp110
Rp111
ag24
(g28
S'\xd5\xd7\x14a\x18z\xad>'
p112
tp113
Rp114
ag24
(g28
S'\xb2\t\xfc\x04\xb2T\x98>'
p115
tp116
Rp117
ag24
(g28
S'\x1a\xafb@\x9d\\\x9b>'
p118
tp119
Rp120
ag24
(g28
S'\x9ez\x18O\xf5A\x9f>'
p121
tp122
Rp123
ag24
(g28
S'8<\x87\xf5\xb7\xf0\xba>'
p124
tp125
Rp126
ag24
(g28
S'`\xc1\xdfl^\x9e\xa7>'
p127
tp128
Rp129
ag24
(g28
S'^\xe8\x86\xea\xbd\xc4\xb1>'
p130
tp131
Rp132
ag24
(g28
S'\xf4\xbfu\x02\xf7\x96\xd0>'
p133
tp134
Rp135
ag24
(g28
S'z\xbba\xd2`\xe6\xb7>'
p136
tp137
Rp138
ag24
(g28
S'\xcb\xe3\xe4{\xc7\xf3\xba>'
p139
tp140
Rp141
ag24
(g28
S'\xb5\xe8UL\xca\xd1\xb6>'
p142
tp143
Rp144
ag24
(g28
S'f\xb3=r\xc8\xa2\xb7>'
p145
tp146
Rp147
ag24
(g28
S'MP\xf87\x19\xfa\xcc>'
p148
tp149
Rp150
ag24
(g28
S'L\xd5\xb3\x7fos\xba>'
p151
tp152
Rp153
ag24
(g28
S'\xe0\x03\xde\xed\x86\xc7\xb1>'
p154
tp155
Rp156
ag24
(g28
S'mg\xa2\xfd\x12N\x96>'
p157
tp158
Rp159
ag24
(g28
S'h\x869\x12\xf9\xd8\x94>'
p160
tp161
Rp162
ag24
(g28
S'\xc2\xd4\x00<\xcd^\x96>'
p163
tp164
Rp165
ag24
(g28
S'8\xafK\x84F\xc7\xbf>'
p166
tp167
Rp168
asg7
g0
(cseisflows.plugins.line_search.base
Writer
p169
g2
Ntp170
Rp171
(dp172
S'iter'
p173
I46
sS'filename'
p174
S'/home/jakemp/code/examples/marmousi-0-serial/output.optim'
p175
sbsS'step_lens'
p176
(lp177
F0.0
aF154468.6
aF249935.4
aF115100.7
aF0.0
aF1.0
aF0.5
aF0.0
aF1.0
aF0.5
aF0.0
aF1.0
aF0.5
aF0.0
aF1.0
aF0.5
aF0.0
aF1.0
aF0.0
aF1.0
aF0.0
aF1.0
aF0.0
aF1.0
aF0.0
aF1.0
aF0.0
aF1.0
aF0.0
aF1.0
aF0.5
aF0.0
aF1.0
aF0.5
aF0.0
aF1.0
aF0.0
aF1.0
aF0.0
aF1.0
aF0.0
aF1.0
aF0.0
aF1.0
aF0.0
aF1.0
aF0.0
aF1.0
aF0.5
aF0.0
aF1.0
aF0.5
aF0.0
aF1.0
aF0.0
aF1.0
aF0.0
aF1.0
aF0.0
aF1.0
aF0.5
aF0.25
aF0.0
aF1.0
aF0.0
aF1.0
aF0.0
aF1.0
aF0.0
aF1.0
aF0.0
aF1.0
aF0.0
aF1.0
aF0.5
aF0.0
aF1.0
aF0.0
aF1.0
aF0.0
aF1.0
aF0.0
aF1.0
aF0.0
aF1.0
aF0.0
aF1.0
aF0.0
aF1.0
aF0.0
aF1.0
aF0.5
aF0.0
aF1.0
aF0.0
aF1.0
aF0.0
aF1.0
aF0.0
aF1.0
aF0.0
aF1.0
aF0.0
aF1.0
aF0.5
aF0.0
aF1.0
asS'gtp'
p178
(lp179
g24
(g28
S'\xf8\x1d[\x9aTP\x10\xbf'
p180
tp181
Rp182
ag24
(g28
S'\x9b\x1d\xe5\x16T~\x19\xc0'
p183
tp184
Rp185
ag24
(g28
S'\xad;\na\x86\xb0!\xc0'
p186
tp187
Rp188
ag24
(g28
S'~\x05\x1fo\xa9\x8a\x12\xc0'
p189
tp190
Rp191
ag24
(g28
S'\xe7\x11m\x80\xcb\xb6\x17\xc0'
p192
tp193
Rp194
ag24
(g28
S'\xaa\xd0\xcd!\x1b\xdc\x03\xc0'
p195
tp196
Rp197
ag24
(g28
S'H\xec]\x01\xe6\xf2\x00\xc0'
p198
tp199
Rp200
ag24
(g28
S'\xe4\xd9k\x0e\xda\xa8\x02\xc0'
p201
tp202
Rp203
ag24
(g28
S'\xae`f\xc8\xbe8\xf6\xbf'
p204
tp205
Rp206
ag24
(g28
S'\xba1\xa8N+\xe9\xf0\xbf'
p207
tp208
Rp209
ag24
(g28
S'j_\xb8\x0e\x98\x92\xec\xbf'
p210
tp211
Rp212
ag24
(g28
S'>\xfb@@3`\x02\xc0'
p213
tp214
Rp215
ag24
(g28
S'F \xd4v\xc2b\xff\xbf'
p216
tp217
Rp218
ag24
(g28
S'I\xe3&d|k\xf9\xbf'
p219
tp220
Rp221
ag24
(g28
S'X\xc4V{\x14\xc6\xf0\xbf'
p222
tp223
Rp224
ag24
(g28
S'\xc0\x8e\xdc\x06\xbc\x88\xfb\xbf'
p225
tp226
Rp227
ag24
(g28
S'\x94P\x06\x16;\xa6\xfa\xbf'
p228
tp229
Rp230
ag24
(g28
S'\x94fi\xbahM\xf4\xbf'
p231
tp232
Rp233
ag24
(g28
S'\xa2\xd5*\x93\xb5\xe0\xf5\xbf'
p234
tp235
Rp236
ag24
(g28
S'\xd0t\x9f\x8a\x0f\xa7\xfc\xbf'
p237
tp238
Rp239
ag24
(g28
S"\xda\xa020'\x16\xfc\xbf"
p240
tp241
Rp242
ag24
(g28
S'\xe5o\x1a\xe0\xbf\xe2\xf6\xbf'
p243
tp244
Rp245
ag24
(g28
S'\x98\x9f\xa4=\x97\xb0\xea\xbf'
p246
tp247
Rp248
ag24
(g28
S'\x8f\xc5>z\x1e\x83\xfa\xbf'
p249
tp250
Rp251
ag24
(g28
S'\xea\xb8r\x1e\x02\x8a\x03\xc0'
p252
tp253
Rp254
ag24
(g28
S'/I\x12\xa8p\xa1\xdc\xbf'
p255
tp256
Rp257
ag24
(g28
S'\x9e\xcba\xc2\x00\x8c\xda\xbf'
p258
tp259
Rp260
ag24
(g28
S'f\x0bF\xbf\x9eG\xcb\xbf'
p261
tp262
Rp263
ag24
(g28
S'\x12\xfbu\xba\xc6)\xc6\xbf'
p264
tp265
Rp266
ag24
(g28
S'g{\xec\xd7\xd2w\xd1\xbf'
p267
tp268
Rp269
ag24
(g28
S"'\xca\xab\x15\x06q\xe3\xbf"
p270
tp271
Rp272
ag24
(g28
S'\xa8p\x08s\xaaM\xd4\xbf'
p273
tp274
Rp275
ag24
(g28
S'X\x0c\x8c\xdeQ\x80\xd8\xbf'
p276
tp277
Rp278
ag24
(g28
S'\x90qc\x1ddy\xe3\xbf'
p279
tp280
Rp281
ag24
(g28
S'j\x07\xa7M\x1c\x98\xd3\xbf'
p282
tp283
Rp284
ag24
(g28
S'\x07\xd1\x0cD\x98\xb4\xd3\xbf'
p285
tp286
Rp287
ag24
(g28
S'\xd8-\x02#\\1\xc7\xbf'
p288
tp289
Rp290
ag24
(g28
S"\x8e'ye8\x9d\xdc\xbf"
p291
tp292
Rp293
ag24
(g28
S'\x8b\xdd\xad\xce\x01f\xed\xbf'
p294
tp295
Rp296
ag24
(g28
S'\xd7\xe5h\xe9\n\x02\xd3\xbf'
p297
tp298
Rp299
ag24
(g28
S'z\x94\x9en\xfez\xd1\xbf'
p300
tp301
Rp302
ag24
(g28
S'\xfc\r\xefX\x0b4\xb8\xbf'
p303
tp304
Rp305
ag24
(g28
S' \x98\xd1\xf1\xcc"\xb8\xbf'
p306
tp307
Rp308
ag24
(g28
S'\x9d\x07\xdc\xab\xd2\xa7\xb6\xbf'
p309
tp310
Rp311
ag24
(g28
S'\x80,\x17\xe2&\x11\xd1\xbf'
p312
tp313
Rp314
ag24
(g28
S'\x8f LM@d\xc6\xbf'
p315
tp316
Rp317
asS'step_count_max'
p318
I10
sS'step_len_max'
p319
g24
(g28
S'e\xe5\xb9@\x9c\xb5R@'
p320
tp321
Rp322
sbsS'precond'
p323
Nsg173
I47
sS'LBFGS'
p324
g0
(cseisflows.plugins.optimize.LBFGS
LBFGS
p325
g2
Ntp326
Rp327
(dp328
S'load'
p329
cseisflows.tools.tools
loadnpy
p330
sS'memory_used'
p331
I3
sS'memory'
p332
I3
sg173
I46
sg323
NsS'maxiter'
p333
Finf
sS'thresh'
p334
F0.0
sg12
S'/home/jakemp/code/examples/marmousi-0-serial/scratch/optimize'
p335
sS'save'
p336
cseisflows.tools.tools
savenpy
p337
sbsb.