ccopy_reg
_reconstructor
p0
(cseisflows.solver.specfem2d
specfem2d
p1
c__builtin__
object
p2
Ntp3
Rp4
(dp5
S'_mesh_properties'
p6
g0
(cseisflows.tools.tools
Struct
p7
c__builtin__
dict
p8
(dp9
S'ngll'
p10
(lp11
I67500
asS'nproc'
p12
I1
sS'coords'
p13
g0
(g7
g8
(dp14
S'y'
p15
cfunctools
partial
p16
(cseisflows.plugins.solver_io.fortran_binary
read_slice
p17
tp18
Rp19
(g17
(g4
S'/home/jakemp/code/examples/marmousi-waterdepth-0/smooth_0150'
p20
g15
tp21
NNtp22
bsS'x'
p23
g16
(g17
tp24
Rp25
(g17
(g4
g20
g23
tp26
NNtp27
bsS'z'
p28
g16
(g17
tp29
Rp30
(g17
(g4
g20
g28
tp31
NNtp32
bstp33
Rp34
g34
bsS'path'
p35
g20
stp36
Rp37
g37
bsS'_source_names'
p38
(lp39
S'000000'
p40
asb.